#include <math.h>
#include <stdio.h>
#include <stdlib.h>
#include <string.h>

void main()
{
	char c1[100],c2[100],*p;
	int i,j,k,n=0,m;
	scanf("%s",c1);
	scanf("%s",c2);
	p=strstr(c2,c1);
	for(i=0;c2[i]!='\0';i++)
		if(&c2[i]==p)break;
	printf("%d",i);
}